; Function Attrs: nofree norecurse nosync nounwind memory(read, argmem: readwrite, inaccessiblemem: none) uwtable
define { ptr, i64 } @stbtt__cff_get_index(ptr noundef captures(none) %0) local_unnamed_addr #3 {
  %2 = getelementptr inbounds nuw i8, ptr %0, i64 8
  %3 = load i32, ptr %2, align 8, !tbaa !3
  %4 = getelementptr inbounds nuw i8, ptr %0, i64 12
  %5 = load i32, ptr %4, align 4, !tbaa !10
  br label %6

6:                                                ; preds = %stbtt__buf_get8.exit.i, %1
  %7 = phi i32 [ %3, %1 ], [ %16, %stbtt__buf_get8.exit.i ]
  %.07.i = phi i32 [ 0, %1 ], [ %18, %stbtt__buf_get8.exit.i ]
  %.056.i = phi i32 [ 0, %1 ], [ %17, %stbtt__buf_get8.exit.i ]
  %8 = shl i32 %.056.i, 8
  %.not.i.i = icmp slt i32 %7, %5
  br i1 %.not.i.i, label %9, label %stbtt__buf_get8.exit.i

9:                                                ; preds = %6
  %10 = load ptr, ptr %0, align 8, !tbaa !11
  %11 = add nsw i32 %7, 1
  store i32 %11, ptr %2, align 8, !tbaa !3
  %12 = sext i32 %7 to i64
  %13 = getelementptr inbounds i8, ptr %10, i64 %12
  %14 = load i8, ptr %13, align 1, !tbaa !12
  %15 = zext i8 %14 to i32
  br label %stbtt__buf_get8.exit.i

stbtt__buf_get8.exit.i:                           ; preds = %9, %6
  %16 = phi i32 [ %11, %9 ], [ %7, %6 ]
  %.0.i.i = phi i32 [ %15, %9 ], [ 0, %6 ]
  %17 = or disjoint i32 %.0.i.i, %8
  %18 = add nuw nsw i32 %.07.i, 1
  %exitcond.not.i = icmp eq i32 %18, 2
  br i1 %exitcond.not.i, label %stbtt__buf_get.exit, label %6, !llvm.loop !13

stbtt__buf_get.exit:                              ; preds = %stbtt__buf_get8.exit.i
  %.not = icmp eq i32 %17, 0
  br i1 %.not, label %49, label %19

19:                                               ; preds = %stbtt__buf_get.exit
  %.not.i = icmp slt i32 %16, %5
  br i1 %.not.i, label %20, label %stbtt__buf_get8.exit

20:                                               ; preds = %19
  %21 = load ptr, ptr %0, align 8, !tbaa !11
  %22 = add nsw i32 %16, 1
  store i32 %22, ptr %2, align 8, !tbaa !3
  %23 = sext i32 %16 to i64
  %24 = getelementptr inbounds i8, ptr %21, i64 %23
  %25 = load i8, ptr %24, align 1, !tbaa !12
  %26 = zext i8 %25 to i32
  br label %stbtt__buf_get8.exit

stbtt__buf_get8.exit:                             ; preds = %19, %20
  %27 = phi i32 [ %22, %20 ], [ %16, %19 ]
  %.0.i = phi i32 [ %26, %20 ], [ 0, %19 ]
  %28 = mul nsw i32 %.0.i, %17
  %29 = add nsw i32 %27, %28
  %30 = icmp slt i32 %29, 0
  %31 = tail call i32 @llvm.smin.i32(i32 %29, i32 %5)
  %..i.i = select i1 %30, i32 %5, i32 %31
  %.not22 = icmp eq i32 %.0.i, 0
  br i1 %.not22, label %stbtt__buf_get.exit20, label %.lr.ph.i

.lr.ph.i:                                         ; preds = %stbtt__buf_get8.exit, %stbtt__buf_get8.exit.i17
  %32 = phi i32 [ %41, %stbtt__buf_get8.exit.i17 ], [ %..i.i, %stbtt__buf_get8.exit ]
  %.07.i14 = phi i32 [ %43, %stbtt__buf_get8.exit.i17 ], [ 0, %stbtt__buf_get8.exit ]
  %.056.i15 = phi i32 [ %42, %stbtt__buf_get8.exit.i17 ], [ 0, %stbtt__buf_get8.exit ]
  %33 = shl i32 %.056.i15, 8
  %.not.i.i16 = icmp slt i32 %32, %5
  br i1 %.not.i.i16, label %34, label %stbtt__buf_get8.exit.i17

34:                                               ; preds = %.lr.ph.i
  %35 = load ptr, ptr %0, align 8, !tbaa !11
  %36 = add nsw i32 %32, 1
  store i32 %36, ptr %2, align 8, !tbaa !3
  %37 = sext i32 %32 to i64
  %38 = getelementptr inbounds i8, ptr %35, i64 %37
  %39 = load i8, ptr %38, align 1, !tbaa !12
  %40 = zext i8 %39 to i32
  br label %stbtt__buf_get8.exit.i17

stbtt__buf_get8.exit.i17:                         ; preds = %34, %.lr.ph.i
  %41 = phi i32 [ %36, %34 ], [ %32, %.lr.ph.i ]
  %.0.i.i18 = phi i32 [ %40, %34 ], [ 0, %.lr.ph.i ]
  %42 = or disjoint i32 %.0.i.i18, %33
  %43 = add nuw nsw i32 %.07.i14, 1
  %exitcond.not.i19 = icmp eq i32 %43, %.0.i
  br i1 %exitcond.not.i19, label %stbtt__buf_get.exit20.loopexit, label %.lr.ph.i, !llvm.loop !13

stbtt__buf_get.exit20.loopexit:                   ; preds = %stbtt__buf_get8.exit.i17
  %44 = add i32 %42, -1
  br label %stbtt__buf_get.exit20

stbtt__buf_get.exit20:                            ; preds = %stbtt__buf_get.exit20.loopexit, %stbtt__buf_get8.exit
  %45 = phi i32 [ %..i.i, %stbtt__buf_get8.exit ], [ %41, %stbtt__buf_get.exit20.loopexit ]
  %.05.lcssa.i = phi i32 [ -1, %stbtt__buf_get8.exit ], [ %44, %stbtt__buf_get.exit20.loopexit ]
  %46 = add nsw i32 %.05.lcssa.i, %45
  %47 = icmp slt i32 %46, 0
  %48 = tail call i32 @llvm.smin.i32(i32 %46, i32 %5)
  %..i.i21 = select i1 %47, i32 %5, i32 %48
  store i32 %..i.i21, ptr %2, align 8, !tbaa !3
  br label %49

49:                                               ; preds = %stbtt__buf_get.exit20, %stbtt__buf_get.exit
  %50 = phi i32 [ %..i.i21, %stbtt__buf_get.exit20 ], [ %16, %stbtt__buf_get.exit ]
  %51 = sub nsw i32 %50, %3
  %52 = or i32 %51, %3
  %or.cond.not.i = icmp sgt i32 %52, -1
  br i1 %or.cond.not.i, label %53, label %stbtt__buf_range.exit

53:                                               ; preds = %49
  %54 = icmp sgt i32 %3, %5
  %55 = icmp sgt i32 %50, %5
  %or.cond.i = or i1 %54, %55
  br i1 %or.cond.i, label %stbtt__buf_range.exit, label %56

56:                                               ; preds = %53
  %57 = load ptr, ptr %0, align 8, !tbaa !11
  %58 = zext nneg i32 %3 to i64
  %59 = getelementptr inbounds nuw i8, ptr %57, i64 %58
  %60 = zext i32 %51 to i64
  %61 = shl nuw i64 %60, 32
  br label %stbtt__buf_range.exit

stbtt__buf_range.exit:                            ; preds = %49, %53, %56
  %.sroa.0.0.i = phi ptr [ null, %49 ], [ null, %53 ], [ %59, %56 ]
  %.sroa.5.0.i = phi i64 [ 0, %49 ], [ 0, %53 ], [ %61, %56 ]
  %.fca.0.insert.i = insertvalue { ptr, i64 } poison, ptr %.sroa.0.0.i, 0
  %.fca.1.insert.i = insertvalue { ptr, i64 } %.fca.0.insert.i, i64 %.sroa.5.0.i, 1
  ret { ptr, i64 } %.fca.1.insert.i
}